Certificate:
    Data:
        Version: 3 (0x2)
        Serial Number:
            6d:53:f0:7b:bc:2d:9d:cf:5d:a7:a1:02:c8:fa:a8:0e:1e:e3:fd:e1
        Signature Algorithm: sha256WithRSAEncryption
        Issuer: DC=org, DC=simple, O=Simple Inc, CN=Simple Signing CA
        Validity
            Not Before: Dec  7 08:10:04 2025 GMT
            Not After : Dec  7 08:10:04 2027 GMT
        Subject: DC=org, DC=simple, O=Simple Inc, CN=localhost
        Subject Public Key Info:
            Public Key Algorithm: rsaEncryption
                Public-Key: (2048 bit)
                Modulus:
                    00:c1:45:7c:4c:7f:9d:ac:f9:55:0e:48:9a:ee:bd:
                    25:d8:98:39:63:d6:45:b5:28:95:f9:6d:73:d4:7f:
                    89:a5:7c:28:f6:f3:7b:9d:56:91:fd:fb:a0:0a:e2:
                    9c:46:97:74:5c:49:78:f5:05:93:e6:29:dc:15:d4:
                    e5:a0:b9:4d:e4:e3:6a:7b:b5:bb:1a:4f:d3:a0:be:
                    79:f1:c3:7c:e8:3c:1e:c2:b6:91:79:9f:c3:e2:11:
                    8a:f0:24:46:9e:fb:3a:8c:d2:83:03:dc:2a:21:08:
                    9d:1d:52:f3:3c:82:36:1d:3b:04:55:65:50:c1:4f:
                    aa:b3:ab:69:72:ca:62:31:db:85:2e:d4:12:b9:23:
                    16:62:79:31:f4:e1:4b:b8:71:15:c9:56:35:7e:e9:
                    f0:62:dd:7c:1c:e5:ee:c4:49:2a:d1:a0:18:6d:3c:
                    f4:d4:db:e2:0a:81:9d:ed:bf:6e:ef:23:8c:b2:d8:
                    7c:8a:85:9c:db:8d:1c:01:bf:d9:62:14:78:69:e7:
                    8e:d9:a4:6c:fd:60:65:1e:88:b4:98:4e:2f:78:e9:
                    a9:66:27:ec:c1:f3:87:d5:4d:00:9b:61:7b:b7:4c:
                    b6:f0:98:80:b9:5d:d9:31:af:da:36:2c:ce:56:34:
                    9b:58:91:ac:3b:f3:b7:b7:e4:02:80:41:d5:ef:8c:
                    45:15
                Exponent: 65537 (0x10001)
        X509v3 extensions:
            X509v3 Key Usage: critical
                Digital Signature, Key Encipherment
            X509v3 Basic Constraints: 
                CA:FALSE
            X509v3 Extended Key Usage: 
                TLS Web Server Authentication, TLS Web Client Authentication
            X509v3 Subject Key Identifier: 
                0C:64:24:5B:EE:22:68:1F:15:8F:BD:87:C8:43:CE:AA:2D:C1:90:75
            X509v3 Authority Key Identifier: 
                F9:EB:CB:86:8C:31:5C:EE:30:0D:CE:1F:2A:B1:46:8C:48:6A:01:B4
            X509v3 Subject Alternative Name: 
                DNS:localhost, IP Address:127.0.0.1
    Signature Algorithm: sha256WithRSAEncryption
    Signature Value:
        a2:a4:db:f1:d5:2b:e5:2d:c6:30:1e:ea:39:7f:ce:cb:db:c7:
        fb:b1:45:d2:8f:63:dc:06:8b:4e:15:cb:aa:22:0f:01:84:78:
        a4:bb:b4:90:4f:2c:cb:1d:95:e7:53:72:4e:b9:40:08:67:5f:
        ed:8c:b3:d7:58:6c:e9:d3:fc:c1:42:9d:9b:57:77:54:51:64:
        d2:27:ba:f3:ff:1f:13:62:28:77:3e:82:5b:19:e3:ad:ab:04:
        6a:6c:e2:58:1e:a1:36:14:76:40:45:10:b2:e9:3d:ff:67:0e:
        50:e5:93:42:31:ac:79:00:d9:28:a6:fb:2f:0f:67:38:c9:60:
        62:ac:50:27:54:53:1a:b1:6d:6c:e7:94:47:12:05:ff:8f:98:
        41:ad:f4:ce:9a:8b:81:7f:70:2c:39:01:b6:3f:06:4e:8f:9e:
        c9:95:eb:af:d8:f7:6b:80:c1:82:15:4d:8d:15:ce:f9:aa:46:
        3b:89:48:c7:c7:9b:65:f6:8a:11:a4:35:da:af:e3:ce:fe:e8:
        6e:1f:db:82:2d:0c:58:1f:94:9a:6f:bf:1d:fb:b4:63:62:5c:
        f5:dc:93:b0:10:64:dd:04:af:1e:ab:db:a4:a3:9a:ed:c3:24:
        e9:ef:1f:0d:8d:ab:82:13:cc:50:4f:65:b1:30:89:fa:ea:e0:
        f4:c1:21:bd
-----BEGIN CERTIFICATE-----
MIID3DCCAsSgAwIBAgIUbVPwe7wtnc9dp6ECyPqoDh7j/eEwDQYJKoZIhvcNAQEL
BQAwXjETMBEGCgmSJomT8ixkARkWA29yZzEWMBQGCgmSJomT8ixkARkWBnNpbXBs
ZTETMBEGA1UECgwKU2ltcGxlIEluYzEaMBgGA1UEAwwRU2ltcGxlIFNpZ25pbmcg
Q0EwHhcNMjUxMjA3MDgxMDA0WhcNMjcxMjA3MDgxMDA0WjBWMRMwEQYKCZImiZPy
LGQBGRYDb3JnMRYwFAYKCZImiZPyLGQBGRYGc2ltcGxlMRMwEQYDVQQKDApTaW1w
bGUgSW5jMRIwEAYDVQQDDAlsb2NhbGhvc3QwggEiMA0GCSqGSIb3DQEBAQUAA4IB
DwAwggEKAoIBAQDBRXxMf52s+VUOSJruvSXYmDlj1kW1KJX5bXPUf4mlfCj283ud
VpH9+6AK4pxGl3RcSXj1BZPmKdwV1OWguU3k42p7tbsaT9Ogvnnxw3zoPB7CtpF5
n8PiEYrwJEae+zqM0oMD3CohCJ0dUvM8gjYdOwRVZVDBT6qzq2lyymIx24Uu1BK5
IxZieTH04Uu4cRXJVjV+6fBi3Xwc5e7ESSrRoBhtPPTU2+IKgZ3tv27vI4yy2HyK
hZzbjRwBv9liFHhp547ZpGz9YGUeiLSYTi946almJ+zB84fVTQCbYXu3TLbwmIC5
Xdkxr9o2LM5WNJtYkaw787e35AKAQdXvjEUVAgMBAAGjgZkwgZYwDgYDVR0PAQH/
BAQDAgWgMAkGA1UdEwQCMAAwHQYDVR0lBBYwFAYIKwYBBQUHAwEGCCsGAQUFBwMC
MB0GA1UdDgQWBBQMZCRb7iJoHxWPvYfIQ86qLcGQdTAfBgNVHSMEGDAWgBT568uG
jDFc7jANzh8qsUaMSGoBtDAaBgNVHREEEzARgglsb2NhbGhvc3SHBH8AAAEwDQYJ
KoZIhvcNAQELBQADggEBAKKk2/HVK+UtxjAe6jl/zsvbx/uxRdKPY9wGi04Vy6oi
DwGEeKS7tJBPLMsdledTck65QAhnX+2Ms9dYbOnT/MFCnZtXd1RRZNInuvP/HxNi
KHc+glsZ462rBGps4lgeoTYUdkBFELLpPf9nDlDlk0IxrHkA2Sim+y8PZzjJYGKs
UCdUUxqxbWznlEcSBf+PmEGt9M6ai4F/cCw5AbY/Bk6PnsmV66/Y92uAwYIVTY0V
zvmqRjuJSMfHm2X2ihGkNdqv487+6G4f24ItDFgflJpvvx37tGNiXPXck7AQZN0E
rx6r26Sjmu3DJOnvHw2Nq4ITzFBPZbEwifrq4PTBIb0=
-----END CERTIFICATE-----
