Certificate:
    Data:
        Version: 3 (0x2)
        Serial Number:
            13:03:21:da:02:02:a7:d2:02:52:49:24:fb:ae:c4:04:6c:ee:9e:35
        Signature Algorithm: sha256WithRSAEncryption
        Issuer: DC=org, DC=simple, O=Simple Inc, CN=Simple Root CA
        Validity
            Not Before: Dec  7 08:07:07 2025 GMT
            Not After : Dec  7 08:07:07 2035 GMT
        Subject: DC=org, DC=simple, O=Simple Inc, CN=Simple Root CA
        Subject Public Key Info:
            Public Key Algorithm: rsaEncryption
                Public-Key: (2048 bit)
                Modulus:
                    00:bc:12:da:e6:c7:0c:89:12:8d:13:32:63:e7:bd:
                    50:dd:fb:67:b8:bf:ea:35:a1:da:47:34:0b:5b:ad:
                    b6:07:fc:07:b0:e4:3e:41:b2:ed:01:50:67:64:2f:
                    a1:16:65:f1:0f:85:39:f8:44:34:cc:47:a2:0f:31:
                    64:13:a0:dd:8e:30:ad:15:9f:0a:14:fc:f8:f7:11:
                    d5:59:12:ac:08:ae:2e:32:5d:9d:66:34:d7:89:88:
                    33:1b:0b:f7:ee:83:40:c2:00:8e:01:8d:be:09:0f:
                    cb:9f:d7:97:6a:e1:f0:48:a8:22:75:f1:c7:88:9e:
                    24:db:bf:0b:62:0e:db:60:46:15:14:8c:23:ee:5f:
                    97:ac:dd:cc:ce:95:52:92:fe:32:80:fa:78:d0:a5:
                    7f:98:52:ef:c1:4d:8b:e8:ce:08:c0:f7:e6:c8:f0:
                    1e:81:db:9b:0c:9e:f2:da:a1:a9:ce:b5:f8:8e:e2:
                    90:2f:37:04:31:93:7e:da:ff:b4:83:d9:e8:c3:09:
                    b9:29:ec:0a:cd:dc:a8:f9:ac:fd:87:45:a6:54:8d:
                    2b:ac:d2:e9:74:a2:67:89:e1:0b:64:d4:9c:e2:0f:
                    73:3b:9d:9f:76:25:1e:6d:b2:ae:c8:60:19:e3:ea:
                    4d:80:93:65:b6:98:81:e7:7f:c4:7f:e5:8f:cd:13:
                    53:67
                Exponent: 65537 (0x10001)
        X509v3 extensions:
            X509v3 Key Usage: critical
                Certificate Sign, CRL Sign
            X509v3 Basic Constraints: critical
                CA:TRUE
            X509v3 Subject Key Identifier: 
                7D:BC:9B:04:3B:22:0B:2D:43:C2:E6:E7:A5:D9:03:F7:99:87:D4:03
            X509v3 Authority Key Identifier: 
                7D:BC:9B:04:3B:22:0B:2D:43:C2:E6:E7:A5:D9:03:F7:99:87:D4:03
    Signature Algorithm: sha256WithRSAEncryption
    Signature Value:
        88:e7:0b:58:45:28:63:d3:d6:22:98:82:c5:7e:ce:f1:f7:6d:
        79:32:1a:23:c3:d7:0c:4d:11:14:14:6c:99:f1:ec:c1:0d:ac:
        ae:49:9d:fb:66:3c:29:b5:73:ff:f8:bf:5e:54:29:18:d2:e7:
        4f:58:0d:1e:96:e2:c5:af:e0:fd:4b:57:5a:ef:de:f9:d6:c1:
        e5:3b:3a:e8:82:c0:96:c7:48:4c:99:a0:f5:e3:e4:ac:2e:ed:
        f7:5d:2c:76:61:a7:18:a2:a1:0b:f4:91:43:a6:be:c2:2c:eb:
        7a:e5:80:1a:8e:3b:e1:2e:12:83:ba:73:e6:cf:74:b3:71:a2:
        0b:ee:7d:0e:70:4c:d7:ec:25:0e:ae:96:ba:cf:fd:93:f4:fd:
        f0:cb:5f:ea:f1:91:e9:61:05:19:77:4c:6d:82:f0:81:7b:8f:
        5d:b8:08:4b:dd:c9:2f:b3:32:0a:02:0f:3f:8d:f7:89:22:b1:
        52:4e:dc:db:b7:c7:07:71:f7:60:72:79:e9:64:06:de:45:96:
        5b:10:a7:b0:a1:a8:84:8c:f1:97:f3:4b:77:33:43:39:3f:f6:
        0c:cc:83:11:fb:10:2d:dd:0c:8c:c4:c7:d8:b7:51:f3:c3:40:
        55:7c:fa:95:8a:7d:26:cd:96:bc:df:4d:8f:8f:0a:08:82:4b:
        9d:32:3e:c4
-----BEGIN CERTIFICATE-----
MIIDpzCCAo+gAwIBAgIUEwMh2gICp9ICUkkk+67EBGzunjUwDQYJKoZIhvcNAQEL
BQAwWzETMBEGCgmSJomT8ixkARkWA29yZzEWMBQGCgmSJomT8ixkARkWBnNpbXBs
ZTETMBEGA1UECgwKU2ltcGxlIEluYzEXMBUGA1UEAwwOU2ltcGxlIFJvb3QgQ0Ew
HhcNMjUxMjA3MDgwNzA3WhcNMzUxMjA3MDgwNzA3WjBbMRMwEQYKCZImiZPyLGQB
GRYDb3JnMRYwFAYKCZImiZPyLGQBGRYGc2ltcGxlMRMwEQYDVQQKDApTaW1wbGUg
SW5jMRcwFQYDVQQDDA5TaW1wbGUgUm9vdCBDQTCCASIwDQYJKoZIhvcNAQEBBQAD
ggEPADCCAQoCggEBALwS2ubHDIkSjRMyY+e9UN37Z7i/6jWh2kc0C1uttgf8B7Dk
PkGy7QFQZ2QvoRZl8Q+FOfhENMxHog8xZBOg3Y4wrRWfChT8+PcR1VkSrAiuLjJd
nWY014mIMxsL9+6DQMIAjgGNvgkPy5/Xl2rh8EioInXxx4ieJNu/C2IO22BGFRSM
I+5fl6zdzM6VUpL+MoD6eNClf5hS78FNi+jOCMD35sjwHoHbmwye8tqhqc61+I7i
kC83BDGTftr/tIPZ6MMJuSnsCs3cqPms/YdFplSNK6zS6XSiZ4nhC2TUnOIPczud
n3YlHm2yrshgGePqTYCTZbaYged/xH/lj80TU2cCAwEAAaNjMGEwDgYDVR0PAQH/
BAQDAgEGMA8GA1UdEwEB/wQFMAMBAf8wHQYDVR0OBBYEFH28mwQ7IgstQ8Lm56XZ
A/eZh9QDMB8GA1UdIwQYMBaAFH28mwQ7IgstQ8Lm56XZA/eZh9QDMA0GCSqGSIb3
DQEBCwUAA4IBAQCI5wtYRShj09YimILFfs7x9215Mhojw9cMTREUFGyZ8ezBDayu
SZ37ZjwptXP/+L9eVCkY0udPWA0eluLFr+D9S1da79751sHlOzrogsCWx0hMmaD1
4+SsLu33XSx2YacYoqEL9JFDpr7CLOt65YAajjvhLhKDunPmz3SzcaIL7n0OcEzX
7CUOrpa6z/2T9P3wy1/q8ZHpYQUZd0xtgvCBe49duAhL3ckvszIKAg8/jfeJIrFS
Ttzbt8cHcfdgcnnpZAbeRZZbEKewoaiEjPGX80t3M0M5P/YMzIMR+xAt3QyMxMfY
t1Hzw0BVfPqVin0mzZa8302PjwoIgkudMj7E
-----END CERTIFICATE-----
